target datalayout = "e-m:e-p270:32:32-p271:32:32-p272:64:64-i64:64-i128:128-f80:128-n8:16:32:64-S128"
target triple = "x86_64-pc-linux-gnu"

%struct.AVFormatContext = type { ptr, ptr, ptr, ptr, ptr, i32, i32, ptr, i32, ptr, i32, ptr, ptr, i64, i64, i64, i32, i32, i32, i64, i64, ptr, i32, i32, ptr, i32, i32, i32, i32, ptr, i64, i32, i32, %struct.AVIOInterruptCB, i32, i32, i32, i32, i64, i32, i32, i32, i32, i32, i32, i32, i32, i32, i32, i32, i32, i64, i32, i32, i32, i32, i32, ptr, ptr, ptr, ptr, i32, ptr, ptr, ptr, ptr, i32, ptr, ptr, i64, ptr, ptr, ptr, i64 }
%struct.AVIOInterruptCB = type { ptr, ptr }
%struct.NUTContext = type { ptr, ptr, [256 x %struct.FrameCode], [128 x i8], [128 x ptr], i64, ptr, ptr, i32, i32, i64, i64, i32, ptr, ptr, i32, i32, i64, ptr, i32, i32, i32 }
%struct.FrameCode = type { i16, i8, i16, i16, i16, i8, i8 }
%struct.AVIOContext = type { ptr, ptr, i32, ptr, ptr, ptr, ptr, ptr, ptr, i64, i32, i32, i32, i32, i32, i64, ptr, ptr, ptr, ptr, i32, i32, ptr, ptr, ptr, i32, ptr, i64, i64 }
%struct.AVRational = type { i32, i32 }

@.str.71 = private unnamed_addr constant [25 x i8] c"Syncpoint wallclock %ld\0A\00", align 1
@.str.72 = private unnamed_addr constant [30 x i8] c"sync point checksum mismatch\0A\00", align 1

; Function Attrs: inlinehint nounwind uwtable
define internal double @av_q2d(i64 %0) #11 {
  %2 = alloca %struct.AVRational, align 4
  store i64 %0, ptr %2, align 4
  %3 = getelementptr inbounds nuw %struct.AVRational, ptr %2, i32 0, i32 0
  %4 = load i32, ptr %3, align 4, !tbaa !105
  %5 = sitofp i32 %4 to double
  %6 = getelementptr inbounds nuw %struct.AVRational, ptr %2, i32 0, i32 1
  %7 = load i32, ptr %6, align 4, !tbaa !106
  %8 = sitofp i32 %7 to double
  %9 = fdiv nsz double %5, %8
  ret double %9
}

; Function Attrs: nounwind uwtable
define internal i32 @skip_reserved(ptr noundef %0, i64 noundef %1) #0 {
  %3 = alloca i32, align 4
  %4 = alloca ptr, align 8
  %5 = alloca i64, align 8
  store ptr %0, ptr %4, align 8, !tbaa !38
  store i64 %1, ptr %5, align 8, !tbaa !45
  %6 = load ptr, ptr %4, align 8, !tbaa !38
  %7 = call i64 @avio_tell(ptr noundef %6)
  %8 = load i64, ptr %5, align 8, !tbaa !45
  %9 = sub nsw i64 %8, %7
  store i64 %9, ptr %5, align 8, !tbaa !45
  %10 = load i64, ptr %5, align 8, !tbaa !45
  %11 = icmp slt i64 %10, 0
  br i1 %11, label %12, label %16

12:                                               ; preds = %2
  %13 = load ptr, ptr %4, align 8, !tbaa !38
  %14 = load i64, ptr %5, align 8, !tbaa !45
  %15 = call i64 @avio_seek(ptr noundef %13, i64 noundef %14, i32 noundef 1)
  store i32 -1094995529, ptr %3, align 4
  br label %31

16:                                               ; preds = %2
  br label %17

17:                                               ; preds = %27, %16
  %18 = load i64, ptr %5, align 8, !tbaa !45
  %19 = add nsw i64 %18, -1
  store i64 %19, ptr %5, align 8, !tbaa !45
  %20 = icmp ne i64 %18, 0
  br i1 %20, label %21, label %30

21:                                               ; preds = %17
  %22 = load ptr, ptr %4, align 8, !tbaa !38
  %23 = getelementptr inbounds nuw %struct.AVIOContext, ptr %22, i32 0, i32 10
  %24 = load i32, ptr %23, align 8, !tbaa !108
  %25 = icmp ne i32 %24, 0
  br i1 %25, label %26, label %27

26:                                               ; preds = %21
  store i32 -1094995529, ptr %3, align 4
  br label %31

27:                                               ; preds = %21
  %28 = load ptr, ptr %4, align 8, !tbaa !38
  %29 = call i32 @avio_r8(ptr noundef %28)
  br label %17, !llvm.loop !165

30:                                               ; preds = %17
  store i32 0, ptr %3, align 4
  br label %31

31:                                               ; preds = %30, %26, %12
  %32 = load i32, ptr %3, align 4
  ret i32 %32
}

; Function Attrs: alwaysinline nounwind uwtable
define internal i64 @avio_tell(ptr noundef %0) #4 {
  %2 = alloca ptr, align 8
  store ptr %0, ptr %2, align 8, !tbaa !38
  %3 = load ptr, ptr %2, align 8, !tbaa !38
  %4 = call i64 @avio_seek(ptr noundef %3, i64 noundef 0, i32 noundef 1)
  ret i64 %4
}

; Function Attrs: nounwind uwtable
define internal i32 @decode_syncpoint(ptr noundef %0, ptr noundef %1, ptr noundef %2) #0 {
  %4 = alloca i32, align 4
  %5 = alloca ptr, align 8
  %6 = alloca ptr, align 8
  %7 = alloca ptr, align 8
  %8 = alloca ptr, align 8
  %9 = alloca ptr, align 8
  %10 = alloca i64, align 8
  %11 = alloca i64, align 8
  %12 = alloca i32, align 4
  %13 = alloca i32, align 4
  %14 = alloca %struct.AVRational, align 4
  store ptr %0, ptr %5, align 8, !tbaa !35
  store ptr %1, ptr %6, align 8, !tbaa !156
  store ptr %2, ptr %7, align 8, !tbaa !156
  call void @llvm.lifetime.start.p0(i64 8, ptr %8) #12
  %15 = load ptr, ptr %5, align 8, !tbaa !35
  %16 = getelementptr inbounds nuw %struct.NUTContext, ptr %15, i32 0, i32 1
  %17 = load ptr, ptr %16, align 8, !tbaa !39
  store ptr %17, ptr %8, align 8, !tbaa !18
  call void @llvm.lifetime.start.p0(i64 8, ptr %9) #12
  %18 = load ptr, ptr %8, align 8, !tbaa !18
  %19 = getelementptr inbounds nuw %struct.AVFormatContext, ptr %18, i32 0, i32 4
  %20 = load ptr, ptr %19, align 8, !tbaa !37
  store ptr %20, ptr %9, align 8, !tbaa !38
  call void @llvm.lifetime.start.p0(i64 8, ptr %10) #12
  call void @llvm.lifetime.start.p0(i64 8, ptr %11) #12
  call void @llvm.lifetime.start.p0(i64 4, ptr %12) #12
  %21 = load ptr, ptr %9, align 8, !tbaa !38
  %22 = call i64 @avio_tell(ptr noundef %21)
  %23 = sub nsw i64 %22, 8
  %24 = load ptr, ptr %5, align 8, !tbaa !35
  %25 = getelementptr inbounds nuw %struct.NUTContext, ptr %24, i32 0, i32 10
  store i64 %23, ptr %25, align 8, !tbaa !59
  %26 = load ptr, ptr %5, align 8, !tbaa !35
  %27 = load ptr, ptr %9, align 8, !tbaa !38
  %28 = call i32 @get_packetheader(ptr noundef %26, ptr noundef %27, i32 noundef 1, i64 noundef 5641854393898386793)
  %29 = sext i32 %28 to i64
  store i64 %29, ptr %10, align 8, !tbaa !45
  %30 = load ptr, ptr %9, align 8, !tbaa !38
  %31 = call i64 @avio_tell(ptr noundef %30)
  %32 = load i64, ptr %10, align 8, !tbaa !45
  %33 = add nsw i64 %32, %31
  store i64 %33, ptr %10, align 8, !tbaa !45
  %34 = load ptr, ptr %9, align 8, !tbaa !38
  %35 = call i64 @ffio_read_varlen(ptr noundef %34)
  store i64 %35, ptr %11, align 8, !tbaa !45
  %36 = load ptr, ptr %5, align 8, !tbaa !35
  %37 = getelementptr inbounds nuw %struct.NUTContext, ptr %36, i32 0, i32 10
  %38 = load i64, ptr %37, align 8, !tbaa !59
  %39 = load ptr, ptr %9, align 8, !tbaa !38
  %40 = call i64 @ffio_read_varlen(ptr noundef %39)
  %41 = mul i64 16, %40
  %42 = sub i64 %38, %41
  %43 = load ptr, ptr %7, align 8, !tbaa !156
  store i64 %42, ptr %43, align 8, !tbaa !45
  %44 = load ptr, ptr %7, align 8, !tbaa !156
  %45 = load i64, ptr %44, align 8, !tbaa !45
  %46 = icmp slt i64 %45, 0
  br i1 %46, label %47, label %48

47:                                               ; preds = %3
  store i32 -1094995529, ptr %4, align 4
  store i32 1, ptr %13, align 4
  br label %145

48:                                               ; preds = %3
  %49 = load ptr, ptr %5, align 8, !tbaa !35
  %50 = load ptr, ptr %5, align 8, !tbaa !35
  %51 = getelementptr inbounds nuw %struct.NUTContext, ptr %50, i32 0, i32 13
  %52 = load ptr, ptr %51, align 8, !tbaa !104
  %53 = load i64, ptr %11, align 8, !tbaa !45
  %54 = load ptr, ptr %5, align 8, !tbaa !35
  %55 = getelementptr inbounds nuw %struct.NUTContext, ptr %54, i32 0, i32 9
  %56 = load i32, ptr %55, align 4, !tbaa !103
  %57 = zext i32 %56 to i64
  %58 = urem i64 %53, %57
  %59 = getelementptr inbounds nuw %struct.AVRational, ptr %52, i64 %58
  %60 = load i64, ptr %11, align 8, !tbaa !45
  %61 = load ptr, ptr %5, align 8, !tbaa !35
  %62 = getelementptr inbounds nuw %struct.NUTContext, ptr %61, i32 0, i32 9
  %63 = load i32, ptr %62, align 4, !tbaa !103
  %64 = zext i32 %63 to i64
  %65 = udiv i64 %60, %64
  %66 = load i64, ptr %59, align 4
  call void @ff_nut_reset_ts(ptr noundef %49, i64 %66, i64 noundef %65)
  %67 = load ptr, ptr %5, align 8, !tbaa !35
  %68 = getelementptr inbounds nuw %struct.NUTContext, ptr %67, i32 0, i32 19
  %69 = load i32, ptr %68, align 8, !tbaa !74
  %70 = and i32 %69, 1
  %71 = icmp ne i32 %70, 0
  br i1 %71, label %72, label %97

72:                                               ; preds = %48
  %73 = load ptr, ptr %9, align 8, !tbaa !38
  %74 = call i64 @ffio_read_varlen(ptr noundef %73)
  store i64 %74, ptr %11, align 8, !tbaa !45
  %75 = load ptr, ptr %8, align 8, !tbaa !18
  %76 = load i64, ptr %11, align 8, !tbaa !45
  %77 = load ptr, ptr %5, align 8, !tbaa !35
  %78 = getelementptr inbounds nuw %struct.NUTContext, ptr %77, i32 0, i32 9
  %79 = load i32, ptr %78, align 4, !tbaa !103
  %80 = zext i32 %79 to i64
  %81 = udiv i64 %76, %80
  %82 = load ptr, ptr %5, align 8, !tbaa !35
  %83 = getelementptr inbounds nuw %struct.NUTContext, ptr %82, i32 0, i32 13
  %84 = load ptr, ptr %83, align 8, !tbaa !104
  %85 = load i64, ptr %11, align 8, !tbaa !45
  %86 = load ptr, ptr %5, align 8, !tbaa !35
  %87 = getelementptr inbounds nuw %struct.NUTContext, ptr %86, i32 0, i32 9
  %88 = load i32, ptr %87, align 4, !tbaa !103
  %89 = zext i32 %88 to i64
  %90 = urem i64 %85, %89
  %91 = getelementptr inbounds nuw %struct.AVRational, ptr %84, i64 %90
  %92 = getelementptr inbounds nuw %struct.AVRational, ptr %14, i32 0, i32 0
  store i32 1, ptr %92, align 4, !tbaa !105
  %93 = getelementptr inbounds nuw %struct.AVRational, ptr %14, i32 0, i32 1
  store i32 1000000, ptr %93, align 4, !tbaa !106
  %94 = load i64, ptr %91, align 4
  %95 = load i64, ptr %14, align 4
  %96 = call i64 @av_rescale_q(i64 noundef %81, i64 %94, i64 %95) #13
  call void (ptr, i32, ptr, ...) @av_log(ptr noundef %75, i32 noundef 40, ptr noundef @.str.71, i64 noundef %96)
  br label %97

97:                                               ; preds = %72, %48
  %98 = load ptr, ptr %9, align 8, !tbaa !38
  %99 = load i64, ptr %10, align 8, !tbaa !45
  %100 = call i32 @skip_reserved(ptr noundef %98, i64 noundef %99)
  %101 = icmp ne i32 %100, 0
  br i1 %101, label %106, label %102

102:                                              ; preds = %97
  %103 = load ptr, ptr %9, align 8, !tbaa !38
  %104 = call i64 @ffio_get_checksum(ptr noundef %103)
  %105 = icmp ne i64 %104, 0
  br i1 %105, label %106, label %108

106:                                              ; preds = %102, %97
  %107 = load ptr, ptr %8, align 8, !tbaa !18
  call void (ptr, i32, ptr, ...) @av_log(ptr noundef %107, i32 noundef 16, ptr noundef @.str.72)
  store i32 -1094995529, ptr %4, align 4
  store i32 1, ptr %13, align 4
  br label %145

108:                                              ; preds = %102
  %109 = load i64, ptr %11, align 8, !tbaa !45
  %110 = load ptr, ptr %5, align 8, !tbaa !35
  %111 = getelementptr inbounds nuw %struct.NUTContext, ptr %110, i32 0, i32 9
  %112 = load i32, ptr %111, align 4, !tbaa !103
  %113 = zext i32 %112 to i64
  %114 = udiv i64 %109, %113
  %115 = uitofp i64 %114 to double
  %116 = load ptr, ptr %5, align 8, !tbaa !35
  %117 = getelementptr inbounds nuw %struct.NUTContext, ptr %116, i32 0, i32 13
  %118 = load ptr, ptr %117, align 8, !tbaa !104
  %119 = load i64, ptr %11, align 8, !tbaa !45
  %120 = load ptr, ptr %5, align 8, !tbaa !35
  %121 = getelementptr inbounds nuw %struct.NUTContext, ptr %120, i32 0, i32 9
  %122 = load i32, ptr %121, align 4, !tbaa !103
  %123 = zext i32 %122 to i64
  %124 = urem i64 %119, %123
  %125 = getelementptr inbounds nuw %struct.AVRational, ptr %118, i64 %124
  %126 = load i64, ptr %125, align 4
  %127 = call nsz double @av_q2d(i64 %126)
  %128 = fmul nsz double %115, %127
  %129 = fmul nsz double %128, 1.000000e+06
  %130 = fptosi double %129 to i64
  %131 = load ptr, ptr %6, align 8, !tbaa !156
  store i64 %130, ptr %131, align 8, !tbaa !45
  %132 = load ptr, ptr %5, align 8, !tbaa !35
  %133 = load ptr, ptr %5, align 8, !tbaa !35
  %134 = getelementptr inbounds nuw %struct.NUTContext, ptr %133, i32 0, i32 10
  %135 = load i64, ptr %134, align 8, !tbaa !59
  %136 = load ptr, ptr %7, align 8, !tbaa !156
  %137 = load i64, ptr %136, align 8, !tbaa !45
  %138 = load ptr, ptr %6, align 8, !tbaa !156
  %139 = load i64, ptr %138, align 8, !tbaa !45
  %140 = call i32 @ff_nut_add_sp(ptr noundef %132, i64 noundef %135, i64 noundef %137, i64 noundef %139)
  store i32 %140, ptr %12, align 4, !tbaa !9
  %141 = icmp slt i32 %140, 0
  br i1 %141, label %142, label %144

142:                                              ; preds = %108
  %143 = load i32, ptr %12, align 4, !tbaa !9
  store i32 %143, ptr %4, align 4
  store i32 1, ptr %13, align 4
  br label %145

144:                                              ; preds = %108
  store i32 0, ptr %4, align 4
  store i32 1, ptr %13, align 4
  br label %145

145:                                              ; preds = %144, %142, %106, %47
  call void @llvm.lifetime.end.p0(i64 4, ptr %12) #12
  call void @llvm.lifetime.end.p0(i64 8, ptr %11) #12
  call void @llvm.lifetime.end.p0(i64 8, ptr %10) #12
  call void @llvm.lifetime.end.p0(i64 8, ptr %9) #12
  call void @llvm.lifetime.end.p0(i64 8, ptr %8) #12
  %146 = load i32, ptr %4, align 4
  ret i32 %146
}