; Function Attrs: nounwind uwtable
define internal fastcc range(i32 -2147483648, 1) i32 @decode_syncpoint(ptr noundef initializes((4272, 4280)) %0, ptr noundef nonnull writeonly captures(none) %1, ptr noundef nonnull captures(none) initializes((0, 8)) %2) unnamed_addr #1 {
  %4 = getelementptr inbounds nuw i8, ptr %0, i64 8
  %5 = load ptr, ptr %4, align 8, !tbaa !31
  %6 = getelementptr inbounds nuw i8, ptr %5, i64 32
  %7 = load ptr, ptr %6, align 8, !tbaa !30
  %8 = tail call i64 @avio_seek(ptr noundef %7, i64 noundef 0, i32 noundef 1) #12
  %9 = add nsw i64 %8, -8
  %10 = getelementptr inbounds nuw i8, ptr %0, i64 4272
  store i64 %9, ptr %10, align 8, !tbaa !118
  %11 = tail call fastcc i32 @get_packetheader(ptr noundef %7, i32 noundef 1, i64 noundef 5641854393898386793)
  %12 = sext i32 %11 to i64
  %13 = tail call i64 @avio_seek(ptr noundef %7, i64 noundef 0, i32 noundef 1) #12
  %14 = add nsw i64 %13, %12
  %15 = tail call i64 @ffio_read_varlen(ptr noundef %7) #12
  %16 = load i64, ptr %10, align 8, !tbaa !118
  %17 = tail call i64 @ffio_read_varlen(ptr noundef %7) #12
  %18 = shl i64 %17, 4
  %19 = sub i64 %16, %18
  store i64 %19, ptr %2, align 8, !tbaa !110
  %20 = icmp slt i64 %19, 0
  br i1 %20, label %74, label %21

21:                                               ; preds = %3
  %22 = getelementptr inbounds nuw i8, ptr %0, i64 4296
  %23 = load ptr, ptr %22, align 8, !tbaa !42
  %24 = getelementptr inbounds nuw i8, ptr %0, i64 4268
  %25 = load i32, ptr %24, align 4, !tbaa !41
  %26 = zext i32 %25 to i64
  %27 = urem i64 %15, %26
  %28 = getelementptr inbounds nuw %struct.AVRational, ptr %23, i64 %27
  %29 = udiv i64 %15, %26
  %30 = load i64, ptr %28, align 4
  tail call void @ff_nut_reset_ts(ptr noundef nonnull %0, i64 %30, i64 noundef %29) #12
  %31 = getelementptr inbounds nuw i8, ptr %0, i64 4336
  %32 = load i32, ptr %31, align 8, !tbaa !63
  %33 = and i32 %32, 1
  %.not = icmp eq i32 %33, 0
  br i1 %.not, label %44, label %34

34:                                               ; preds = %21
  %35 = tail call i64 @ffio_read_varlen(ptr noundef %7) #12
  %36 = load i32, ptr %24, align 4, !tbaa !41
  %37 = zext i32 %36 to i64
  %38 = udiv i64 %35, %37
  %39 = load ptr, ptr %22, align 8, !tbaa !42
  %40 = urem i64 %35, %37
  %41 = getelementptr inbounds nuw %struct.AVRational, ptr %39, i64 %40
  %42 = load i64, ptr %41, align 4
  %43 = tail call i64 @av_rescale_q(i64 noundef %38, i64 %42, i64 4294967296000001) #13
  tail call void (ptr, i32, ptr, ...) @av_log(ptr noundef nonnull %5, i32 noundef 40, ptr noundef nonnull @.str.71, i64 noundef %43) #12
  br label %44

44:                                               ; preds = %34, %21
  %.042 = phi i64 [ %35, %34 ], [ %15, %21 ]
  %45 = tail call i64 @avio_seek(ptr noundef %7, i64 noundef 0, i32 noundef 1) #12
  %46 = sub nsw i64 %14, %45
  %47 = icmp slt i64 %46, 0
  br i1 %47, label %49, label %.preheader.i

.preheader.i:                                     ; preds = %44
  %48 = getelementptr inbounds nuw i8, ptr %7, i64 80
  %.not11.i = icmp eq i64 %14, %45
  br i1 %.not11.i, label %.loopexit, label %.lr.ph.i

49:                                               ; preds = %44
  %50 = tail call i64 @avio_seek(ptr noundef %7, i64 noundef %46, i32 noundef 1) #12
  br label %skip_reserved.exit

.lr.ph.i:                                         ; preds = %.preheader.i, %52
  %.in.i = phi i64 [ %53, %52 ], [ %46, %.preheader.i ]
  %51 = load i32, ptr %48, align 8, !tbaa !47
  %.not10.i = icmp eq i32 %51, 0
  br i1 %.not10.i, label %52, label %skip_reserved.exit

52:                                               ; preds = %.lr.ph.i
  %53 = add nsw i64 %.in.i, -1
  %54 = tail call i32 @avio_r8(ptr noundef nonnull %7) #12
  %.not.i = icmp eq i64 %53, 0
  br i1 %.not.i, label %.loopexit, label %.lr.ph.i, !llvm.loop !64

.loopexit:                                        ; preds = %52, %.preheader.i
  %55 = tail call i64 @ffio_get_checksum(ptr noundef %7) #12
  %.not45 = icmp eq i64 %55, 0
  br i1 %.not45, label %56, label %skip_reserved.exit

skip_reserved.exit:                               ; preds = %.lr.ph.i, %49, %.loopexit
  tail call void (ptr, i32, ptr, ...) @av_log(ptr noundef %5, i32 noundef 16, ptr noundef nonnull @.str.72) #12
  br label %74

56:                                               ; preds = %.loopexit
  %57 = load i32, ptr %24, align 4, !tbaa !41
  %58 = zext i32 %57 to i64
  %59 = udiv i64 %.042, %58
  %60 = uitofp i64 %59 to double
  %61 = load ptr, ptr %22, align 8, !tbaa !42
  %62 = urem i64 %.042, %58
  %63 = getelementptr inbounds nuw %struct.AVRational, ptr %61, i64 %62
  %64 = load i64, ptr %63, align 4
  %.sroa.0.0.extract.trunc.i = trunc i64 %64 to i32
  %.sroa.2.0.extract.shift.i = lshr i64 %64, 32
  %.sroa.2.0.extract.trunc.i = trunc nuw i64 %.sroa.2.0.extract.shift.i to i32
  %65 = sitofp i32 %.sroa.0.0.extract.trunc.i to double
  %66 = sitofp i32 %.sroa.2.0.extract.trunc.i to double
  %67 = fdiv nsz double %65, %66
  %68 = fmul nsz double %67, %60
  %69 = fmul nsz double %68, 1.000000e+06
  %70 = fptosi double %69 to i64
  store i64 %70, ptr %1, align 8, !tbaa !110
  %71 = load i64, ptr %10, align 8, !tbaa !118
  %72 = load i64, ptr %2, align 8, !tbaa !110
  %73 = tail call i32 @ff_nut_add_sp(ptr noundef nonnull %0, i64 noundef %71, i64 noundef %72, i64 noundef %70) #12
  %. = tail call i32 @llvm.smin.i32(i32 %73, i32 0)
  br label %74

74:                                               ; preds = %56, %3, %skip_reserved.exit
  %.0 = phi i32 [ -1094995529, %skip_reserved.exit ], [ -1094995529, %3 ], [ %., %56 ]
  ret i32 %.0
}